target datalayout = "e-m:e-p270:32:32-p271:32:32-p272:64:64-i64:64-i128:128-f80:128-n8:16:32:64-S128"
target triple = "x86_64-pc-linux-gnu"

%struct.jit_State = type { %struct.GCtrace, ptr, ptr, ptr, ptr, ptr, ptr, i32, i32, i32, i8, i8, %struct.IRType1, i8, %struct.FoldState, ptr, i32, i32, i32, i32, i32, i32, i32, [1 x i32], [5 x %union.TValue], [3 x %union.TValue], ptr, i32, i32, i32, i32, ptr, ptr, i32, i32, i8, ptr, i32, i32, i16, [101 x i16], [258 x i32], [15 x i32], [16 x ptr], [64 x %struct.HotPenalty], i32, [16 x %struct.BPropEntry], i32, %struct.ScEvEntry, ptr, i32, i32, i32, ptr, i32, i32, ptr, ptr, ptr, i64, i64, %union.TValue, ptr, i32, i32 }
%struct.GCtrace = type { %struct.GCRef, i8, i8, i16, i32, i32, %struct.GCRef, ptr, i32, i32, ptr, ptr, %struct.GCRef, %struct.MRef, i32, i32, ptr, i32, i16, i16, i16, i16, i16, i16, i16, i8, i8, i8, i8 }
%struct.GCRef = type { i64 }
%struct.MRef = type { i64 }
%struct.IRType1 = type { i8 }
%struct.FoldState = type { %union.IRIns, [2 x %union.IRIns], [2 x %union.IRIns] }
%union.IRIns = type { %struct.GCRef }
%struct.HotPenalty = type { %struct.MRef, i16, i16 }
%struct.BPropEntry = type { i16, i16, i32 }
%struct.ScEvEntry = type { %struct.MRef, i16, i16, i16, i16, %struct.IRType1, i8 }
%union.TValue = type { i64 }
%struct.anon.0 = type { i32, %struct.IRType1, i8, i8, i8 }
%struct.anon = type { i16, i16, i16, i16 }

; Function Attrs: nounwind uwtable
define internal i32 @kfold_intop(i32 noundef %0, i32 noundef %1, i32 noundef %2) #0 {
  %4 = alloca i32, align 4
  %5 = alloca i32, align 4
  %6 = alloca i32, align 4
  store i32 %0, ptr %4, align 4, !tbaa !30
  store i32 %1, ptr %5, align 4, !tbaa !30
  store i32 %2, ptr %6, align 4, !tbaa !30
  %7 = load i32, ptr %6, align 4, !tbaa !30
  switch i32 %7, label %103 [
    i32 41, label %8
    i32 42, label %12
    i32 43, label %16
    i32 45, label %20
    i32 47, label %24
    i32 33, label %28
    i32 34, label %32
    i32 35, label %36
    i32 36, label %40
    i32 37, label %45
    i32 38, label %50
    i32 39, label %55
    i32 40, label %69
    i32 50, label %83
    i32 51, label %93
  ]

8:                                                ; preds = %3
  %9 = load i32, ptr %5, align 4, !tbaa !30
  %10 = load i32, ptr %4, align 4, !tbaa !30
  %11 = add nsw i32 %10, %9
  store i32 %11, ptr %4, align 4, !tbaa !30
  br label %104

12:                                               ; preds = %3
  %13 = load i32, ptr %5, align 4, !tbaa !30
  %14 = load i32, ptr %4, align 4, !tbaa !30
  %15 = sub nsw i32 %14, %13
  store i32 %15, ptr %4, align 4, !tbaa !30
  br label %104

16:                                               ; preds = %3
  %17 = load i32, ptr %5, align 4, !tbaa !30
  %18 = load i32, ptr %4, align 4, !tbaa !30
  %19 = mul nsw i32 %18, %17
  store i32 %19, ptr %4, align 4, !tbaa !30
  br label %104

20:                                               ; preds = %3
  %21 = load i32, ptr %4, align 4, !tbaa !30
  %22 = load i32, ptr %5, align 4, !tbaa !30
  %23 = call i32 @lj_vm_modi(i32 noundef %21, i32 noundef %22)
  store i32 %23, ptr %4, align 4, !tbaa !30
  br label %104

24:                                               ; preds = %3
  %25 = load i32, ptr %4, align 4, !tbaa !30
  %26 = xor i32 %25, -1
  %27 = add i32 %26, 1
  store i32 %27, ptr %4, align 4, !tbaa !30
  br label %104

28:                                               ; preds = %3
  %29 = load i32, ptr %5, align 4, !tbaa !30
  %30 = load i32, ptr %4, align 4, !tbaa !30
  %31 = and i32 %30, %29
  store i32 %31, ptr %4, align 4, !tbaa !30
  br label %104

32:                                               ; preds = %3
  %33 = load i32, ptr %5, align 4, !tbaa !30
  %34 = load i32, ptr %4, align 4, !tbaa !30
  %35 = or i32 %34, %33
  store i32 %35, ptr %4, align 4, !tbaa !30
  br label %104

36:                                               ; preds = %3
  %37 = load i32, ptr %5, align 4, !tbaa !30
  %38 = load i32, ptr %4, align 4, !tbaa !30
  %39 = xor i32 %38, %37
  store i32 %39, ptr %4, align 4, !tbaa !30
  br label %104

40:                                               ; preds = %3
  %41 = load i32, ptr %5, align 4, !tbaa !30
  %42 = and i32 %41, 31
  %43 = load i32, ptr %4, align 4, !tbaa !30
  %44 = shl i32 %43, %42
  store i32 %44, ptr %4, align 4, !tbaa !30
  br label %104

45:                                               ; preds = %3
  %46 = load i32, ptr %4, align 4, !tbaa !30
  %47 = load i32, ptr %5, align 4, !tbaa !30
  %48 = and i32 %47, 31
  %49 = lshr i32 %46, %48
  store i32 %49, ptr %4, align 4, !tbaa !30
  br label %104

50:                                               ; preds = %3
  %51 = load i32, ptr %5, align 4, !tbaa !30
  %52 = and i32 %51, 31
  %53 = load i32, ptr %4, align 4, !tbaa !30
  %54 = ashr i32 %53, %52
  store i32 %54, ptr %4, align 4, !tbaa !30
  br label %104

55:                                               ; preds = %3
  %56 = load i32, ptr %4, align 4, !tbaa !30
  %57 = load i32, ptr %5, align 4, !tbaa !30
  %58 = and i32 %57, 31
  %59 = shl i32 %56, %58
  %60 = load i32, ptr %4, align 4, !tbaa !30
  %61 = load i32, ptr %5, align 4, !tbaa !30
  %62 = and i32 %61, 31
  %63 = sub nsw i32 0, %62
  %64 = sext i32 %63 to i64
  %65 = and i64 %64, 31
  %66 = trunc i64 %65 to i32
  %67 = lshr i32 %60, %66
  %68 = or i32 %59, %67
  store i32 %68, ptr %4, align 4, !tbaa !30
  br label %104

69:                                               ; preds = %3
  %70 = load i32, ptr %4, align 4, !tbaa !30
  %71 = load i32, ptr %5, align 4, !tbaa !30
  %72 = and i32 %71, 31
  %73 = sub nsw i32 0, %72
  %74 = sext i32 %73 to i64
  %75 = and i64 %74, 31
  %76 = trunc i64 %75 to i32
  %77 = shl i32 %70, %76
  %78 = load i32, ptr %4, align 4, !tbaa !30
  %79 = load i32, ptr %5, align 4, !tbaa !30
  %80 = and i32 %79, 31
  %81 = lshr i32 %78, %80
  %82 = or i32 %77, %81
  store i32 %82, ptr %4, align 4, !tbaa !30
  br label %104

83:                                               ; preds = %3
  %84 = load i32, ptr %4, align 4, !tbaa !30
  %85 = load i32, ptr %5, align 4, !tbaa !30
  %86 = icmp slt i32 %84, %85
  br i1 %86, label %87, label %89

87:                                               ; preds = %83
  %88 = load i32, ptr %4, align 4, !tbaa !30
  br label %91

89:                                               ; preds = %83
  %90 = load i32, ptr %5, align 4, !tbaa !30
  br label %91

91:                                               ; preds = %89, %87
  %92 = phi i32 [ %88, %87 ], [ %90, %89 ]
  store i32 %92, ptr %4, align 4, !tbaa !30
  br label %104

93:                                               ; preds = %3
  %94 = load i32, ptr %4, align 4, !tbaa !30
  %95 = load i32, ptr %5, align 4, !tbaa !30
  %96 = icmp sgt i32 %94, %95
  br i1 %96, label %97, label %99

97:                                               ; preds = %93
  %98 = load i32, ptr %4, align 4, !tbaa !30
  br label %101

99:                                               ; preds = %93
  %100 = load i32, ptr %5, align 4, !tbaa !30
  br label %101

101:                                              ; preds = %99, %97
  %102 = phi i32 [ %98, %97 ], [ %100, %99 ]
  store i32 %102, ptr %4, align 4, !tbaa !30
  br label %104

103:                                              ; preds = %3
  br label %104

104:                                              ; preds = %103, %101, %91, %69, %55, %50, %45, %40, %36, %32, %28, %24, %20, %16, %12, %8
  %105 = load i32, ptr %4, align 4, !tbaa !30
  ret i32 %105
}

; Function Attrs: nounwind uwtable
define internal i32 @fold_reassoc_minmax_k(ptr noundef %0) #0 {
  %2 = alloca i32, align 4
  %3 = alloca ptr, align 8
  %4 = alloca ptr, align 8
  %5 = alloca i32, align 4
  %6 = alloca i32, align 4
  %7 = alloca i32, align 4
  store ptr %0, ptr %3, align 8, !tbaa !4
  call void @llvm.lifetime.start.p0(i64 8, ptr %4) #8
  %8 = load ptr, ptr %3, align 8, !tbaa !4
  %9 = getelementptr inbounds nuw %struct.jit_State, ptr %8, i32 0, i32 0
  %10 = getelementptr inbounds nuw %struct.GCtrace, ptr %9, i32 0, i32 7
  %11 = load ptr, ptr %10, align 8, !tbaa !32
  %12 = load ptr, ptr %3, align 8, !tbaa !4
  %13 = getelementptr inbounds nuw %struct.jit_State, ptr %12, i32 0, i32 14
  %14 = getelementptr inbounds nuw %struct.FoldState, ptr %13, i32 0, i32 1
  %15 = getelementptr inbounds [2 x %union.IRIns], ptr %14, i64 0, i64 0
  %16 = getelementptr inbounds nuw %struct.anon, ptr %15, i32 0, i32 1
  %17 = load i16, ptr %16, align 2, !tbaa !29
  %18 = zext i16 %17 to i64
  %19 = getelementptr inbounds nuw %union.IRIns, ptr %11, i64 %18
  store ptr %19, ptr %4, align 8, !tbaa !38
  %20 = load ptr, ptr %4, align 8, !tbaa !38
  %21 = getelementptr inbounds nuw %struct.anon.0, ptr %20, i32 0, i32 2
  %22 = load i8, ptr %21, align 1, !tbaa !29
  %23 = zext i8 %22 to i32
  %24 = icmp eq i32 %23, 23
  br i1 %24, label %25, label %83

25:                                               ; preds = %1
  call void @llvm.lifetime.start.p0(i64 4, ptr %5) #8
  %26 = load ptr, ptr %4, align 8, !tbaa !38
  %27 = load i32, ptr %26, align 8, !tbaa !29
  store i32 %27, ptr %5, align 4, !tbaa !30
  call void @llvm.lifetime.start.p0(i64 4, ptr %6) #8
  %28 = load i32, ptr %5, align 4, !tbaa !30
  %29 = load ptr, ptr %3, align 8, !tbaa !4
  %30 = getelementptr inbounds nuw %struct.jit_State, ptr %29, i32 0, i32 14
  %31 = getelementptr inbounds nuw %struct.FoldState, ptr %30, i32 0, i32 2
  %32 = getelementptr inbounds [2 x %union.IRIns], ptr %31, i64 0, i64 0
  %33 = load i32, ptr %32, align 8, !tbaa !29
  %34 = load ptr, ptr %3, align 8, !tbaa !4
  %35 = getelementptr inbounds nuw %struct.jit_State, ptr %34, i32 0, i32 14
  %36 = getelementptr inbounds nuw %struct.FoldState, ptr %35, i32 0, i32 0
  %37 = getelementptr inbounds nuw %struct.anon.0, ptr %36, i32 0, i32 2
  %38 = load i8, ptr %37, align 1, !tbaa !29
  %39 = zext i8 %38 to i32
  %40 = call i32 @kfold_intop(i32 noundef %28, i32 noundef %33, i32 noundef %39)
  store i32 %40, ptr %6, align 4, !tbaa !30
  %41 = load i32, ptr %5, align 4, !tbaa !30
  %42 = load i32, ptr %6, align 4, !tbaa !30
  %43 = icmp eq i32 %41, %42
  br i1 %43, label %44, label %51

44:                                               ; preds = %25
  %45 = load ptr, ptr %3, align 8, !tbaa !4
  %46 = getelementptr inbounds nuw %struct.jit_State, ptr %45, i32 0, i32 14
  %47 = getelementptr inbounds nuw %struct.FoldState, ptr %46, i32 0, i32 0
  %48 = getelementptr inbounds nuw %struct.anon, ptr %47, i32 0, i32 0
  %49 = load i16, ptr %48, align 8, !tbaa !29
  %50 = zext i16 %49 to i32
  store i32 %50, ptr %2, align 4
  store i32 1, ptr %7, align 4
  br label %82

51:                                               ; preds = %25
  %52 = load ptr, ptr %3, align 8, !tbaa !4
  %53 = getelementptr inbounds nuw %struct.jit_State, ptr %52, i32 0, i32 14
  %54 = getelementptr inbounds nuw %struct.FoldState, ptr %53, i32 0, i32 1
  %55 = getelementptr inbounds [2 x %union.IRIns], ptr %54, i64 0, i64 0
  %56 = getelementptr inbounds nuw %struct.anon.0, ptr %55, i32 0, i32 1
  %57 = getelementptr inbounds nuw %struct.IRType1, ptr %56, i32 0, i32 0
  %58 = load i8, ptr %57, align 4, !tbaa !29
  %59 = zext i8 %58 to i32
  %60 = and i32 %59, 64
  %61 = icmp ne i32 %60, 0
  br i1 %61, label %62, label %63

62:                                               ; preds = %51
  store i32 0, ptr %2, align 4
  store i32 1, ptr %7, align 4
  br label %82

63:                                               ; preds = %51
  %64 = load ptr, ptr %3, align 8, !tbaa !4
  %65 = getelementptr inbounds nuw %struct.jit_State, ptr %64, i32 0, i32 14
  %66 = getelementptr inbounds nuw %struct.FoldState, ptr %65, i32 0, i32 1
  %67 = getelementptr inbounds [2 x %union.IRIns], ptr %66, i64 0, i64 0
  %68 = getelementptr inbounds nuw %struct.anon, ptr %67, i32 0, i32 0
  %69 = load i16, ptr %68, align 8, !tbaa !29
  %70 = load ptr, ptr %3, align 8, !tbaa !4
  %71 = getelementptr inbounds nuw %struct.jit_State, ptr %70, i32 0, i32 14
  %72 = getelementptr inbounds nuw %struct.FoldState, ptr %71, i32 0, i32 0
  %73 = getelementptr inbounds nuw %struct.anon, ptr %72, i32 0, i32 0
  store i16 %69, ptr %73, align 8, !tbaa !29
  %74 = load ptr, ptr %3, align 8, !tbaa !4
  %75 = load i32, ptr %6, align 4, !tbaa !30
  %76 = call i32 @lj_ir_kint(ptr noundef %74, i32 noundef %75)
  %77 = trunc i32 %76 to i16
  %78 = load ptr, ptr %3, align 8, !tbaa !4
  %79 = getelementptr inbounds nuw %struct.jit_State, ptr %78, i32 0, i32 14
  %80 = getelementptr inbounds nuw %struct.FoldState, ptr %79, i32 0, i32 0
  %81 = getelementptr inbounds nuw %struct.anon, ptr %80, i32 0, i32 1
  store i16 %77, ptr %81, align 2, !tbaa !29
  store i32 1, ptr %2, align 4
  store i32 1, ptr %7, align 4
  br label %82

82:                                               ; preds = %63, %62, %44
  call void @llvm.lifetime.end.p0(i64 4, ptr %6) #8
  call void @llvm.lifetime.end.p0(i64 4, ptr %5) #8
  br label %84

83:                                               ; preds = %1
  store i32 0, ptr %2, align 4
  store i32 1, ptr %7, align 4
  br label %84

84:                                               ; preds = %83, %82
  call void @llvm.lifetime.end.p0(i64 8, ptr %4) #8
  %85 = load i32, ptr %2, align 4
  ret i32 %85
}