; Function Attrs: nounwind uwtable
define internal range(i32 0, 65536) i32 @fold_reassoc_minmax_k(ptr noundef %0) #0 {
  %2 = getelementptr inbounds nuw i8, ptr %0, i64 32
  %3 = load ptr, ptr %2, align 8, !tbaa !30
  %4 = getelementptr inbounds nuw i8, ptr %0, i64 184
  %5 = getelementptr inbounds nuw i8, ptr %0, i64 192
  %6 = getelementptr inbounds nuw i8, ptr %0, i64 194
  %7 = load i16, ptr %6, align 2, !tbaa !28
  %8 = zext i16 %7 to i64
  %9 = getelementptr inbounds nuw %union.IRIns, ptr %3, i64 %8
  %10 = getelementptr inbounds nuw i8, ptr %9, i64 5
  %11 = load i8, ptr %10, align 1, !tbaa !28
  %12 = icmp eq i8 %11, 23
  br i1 %12, label %13, label %64

13:                                               ; preds = %1
  %14 = load i32, ptr %9, align 8, !tbaa !28
  %15 = getelementptr inbounds nuw i8, ptr %0, i64 208
  %16 = load i32, ptr %15, align 8, !tbaa !28
  %17 = getelementptr inbounds nuw i8, ptr %0, i64 189
  %18 = load i8, ptr %17, align 1, !tbaa !28
  switch i8 %18, label %kfold_intop.exit.thread [
    i8 41, label %19
    i8 42, label %21
    i8 43, label %23
    i8 45, label %25
    i8 47, label %27
    i8 33, label %29
    i8 34, label %31
    i8 35, label %33
    i8 36, label %35
    i8 37, label %38
    i8 38, label %41
    i8 39, label %44
    i8 40, label %46
    i8 50, label %48
    i8 51, label %50
  ]

19:                                               ; preds = %13
  %20 = add nsw i32 %16, %14
  br label %kfold_intop.exit

21:                                               ; preds = %13
  %22 = sub nsw i32 %14, %16
  br label %kfold_intop.exit

23:                                               ; preds = %13
  %24 = mul nsw i32 %16, %14
  br label %kfold_intop.exit

25:                                               ; preds = %13
  %26 = tail call i32 @lj_vm_modi(i32 noundef %14, i32 noundef %16) #12
  br label %kfold_intop.exit

27:                                               ; preds = %13
  %28 = sub i32 0, %14
  br label %kfold_intop.exit

29:                                               ; preds = %13
  %30 = and i32 %16, %14
  br label %kfold_intop.exit

31:                                               ; preds = %13
  %32 = or i32 %16, %14
  br label %kfold_intop.exit

33:                                               ; preds = %13
  %34 = xor i32 %16, %14
  br label %kfold_intop.exit

35:                                               ; preds = %13
  %36 = and i32 %16, 31
  %37 = shl i32 %14, %36
  br label %kfold_intop.exit

38:                                               ; preds = %13
  %39 = and i32 %16, 31
  %40 = lshr i32 %14, %39
  br label %kfold_intop.exit

41:                                               ; preds = %13
  %42 = and i32 %16, 31
  %43 = ashr i32 %14, %42
  br label %kfold_intop.exit

44:                                               ; preds = %13
  %45 = tail call i32 @llvm.fshl.i32(i32 %14, i32 %14, i32 %16)
  br label %kfold_intop.exit

46:                                               ; preds = %13
  %47 = tail call i32 @llvm.fshr.i32(i32 %14, i32 %14, i32 %16)
  br label %kfold_intop.exit

48:                                               ; preds = %13
  %49 = tail call i32 @llvm.smin.i32(i32 %14, i32 %16)
  br label %kfold_intop.exit

50:                                               ; preds = %13
  %51 = tail call i32 @llvm.smax.i32(i32 %14, i32 %16)
  br label %kfold_intop.exit

kfold_intop.exit:                                 ; preds = %19, %21, %23, %25, %27, %29, %31, %33, %35, %38, %41, %44, %46, %48, %50
  %.0.i = phi i32 [ %51, %50 ], [ %49, %48 ], [ %47, %46 ], [ %45, %44 ], [ %43, %41 ], [ %40, %38 ], [ %37, %35 ], [ %34, %33 ], [ %32, %31 ], [ %30, %29 ], [ %28, %27 ], [ %26, %25 ], [ %24, %23 ], [ %22, %21 ], [ %20, %19 ]
  %52 = icmp eq i32 %14, %.0.i
  br i1 %52, label %kfold_intop.exit.thread, label %55

kfold_intop.exit.thread:                          ; preds = %13, %kfold_intop.exit
  %53 = load i16, ptr %4, align 8, !tbaa !28
  %54 = zext i16 %53 to i32
  br label %64

55:                                               ; preds = %kfold_intop.exit
  %56 = getelementptr inbounds nuw i8, ptr %0, i64 196
  %57 = load i8, ptr %56, align 4, !tbaa !28
  %58 = and i8 %57, 64
  %.not = icmp eq i8 %58, 0
  br i1 %.not, label %59, label %64

59:                                               ; preds = %55
  %60 = load i16, ptr %5, align 8, !tbaa !28
  store i16 %60, ptr %4, align 8, !tbaa !28
  %61 = tail call i32 @lj_ir_kint(ptr noundef nonnull %0, i32 noundef %.0.i) #12
  %62 = trunc i32 %61 to i16
  %63 = getelementptr inbounds nuw i8, ptr %0, i64 186
  store i16 %62, ptr %63, align 2, !tbaa !28
  br label %64

64:                                               ; preds = %1, %kfold_intop.exit.thread, %59, %55
  %.1 = phi i32 [ %54, %kfold_intop.exit.thread ], [ 1, %59 ], [ 0, %55 ], [ 0, %1 ]
  ret i32 %.1
}